; Function Attrs: mustprogress nofree norecurse nosync nounwind memory(argmem: readwrite) uwtable
define void @_Z12gmx_calc_cogPK10gmx_mtop_tPA3_fiPKiPf(ptr noundef readnone captures(none) %0, ptr noundef readonly captures(none) %1, i32 noundef %2, ptr noundef readonly captures(none) %3, ptr noundef writeonly captures(none) initializes((0, 12)) %4) local_unnamed_addr #0 {
  store float 0.000000e+00, ptr %4, align 4, !tbaa !4
  %6 = getelementptr inbounds nuw i8, ptr %4, i64 4
  store float 0.000000e+00, ptr %6, align 4, !tbaa !4
  %7 = getelementptr inbounds nuw i8, ptr %4, i64 8
  store float 0.000000e+00, ptr %7, align 4, !tbaa !4
  %8 = icmp sgt i32 %2, 0
  br i1 %8, label %.lr.ph, label %._crit_edge

.lr.ph:                                           ; preds = %5
  %wide.trip.count = zext nneg i32 %2 to i64
  br label %9

9:                                                ; preds = %.lr.ph, %9
  %indvars.iv = phi i64 [ 0, %.lr.ph ], [ %indvars.iv.next, %9 ]
  %10 = phi float [ 0.000000e+00, %.lr.ph ], [ %24, %9 ]
  %11 = phi float [ 0.000000e+00, %.lr.ph ], [ %21, %9 ]
  %12 = phi float [ 0.000000e+00, %.lr.ph ], [ %18, %9 ]
  %13 = getelementptr inbounds nuw i32, ptr %3, i64 %indvars.iv
  %14 = load i32, ptr %13, align 4, !tbaa !8
  %15 = sext i32 %14 to i64
  %16 = getelementptr inbounds [3 x float], ptr %1, i64 %15
  %17 = load float, ptr %16, align 4, !tbaa !4
  %18 = fadd float %12, %17
  %19 = getelementptr inbounds nuw i8, ptr %16, i64 4
  %20 = load float, ptr %19, align 4, !tbaa !4
  %21 = fadd float %11, %20
  %22 = getelementptr inbounds nuw i8, ptr %16, i64 8
  %23 = load float, ptr %22, align 4, !tbaa !4
  %24 = fadd float %10, %23
  store float %18, ptr %4, align 4, !tbaa !4
  store float %21, ptr %6, align 4, !tbaa !4
  store float %24, ptr %7, align 4, !tbaa !4
  %indvars.iv.next = add nuw nsw i64 %indvars.iv, 1
  %exitcond.not = icmp eq i64 %indvars.iv.next, %wide.trip.count
  br i1 %exitcond.not, label %._crit_edge, label %9, !llvm.loop !10

._crit_edge:                                      ; preds = %9, %5
  %25 = phi float [ 0.000000e+00, %5 ], [ %24, %9 ]
  %26 = phi float [ 0.000000e+00, %5 ], [ %21, %9 ]
  %27 = phi float [ 0.000000e+00, %5 ], [ %18, %9 ]
  %28 = sitofp i32 %2 to double
  %29 = fdiv double 1.000000e+00, %28
  %30 = fptrunc double %29 to float
  %31 = fmul float %27, %30
  store float %31, ptr %4, align 4, !tbaa !4
  %32 = fmul float %26, %30
  store float %32, ptr %6, align 4, !tbaa !4
  %33 = fmul float %25, %30
  store float %33, ptr %7, align 4, !tbaa !4
  ret void
}